; ModuleID = '32/1601.c'
source_filename = "32/1601.c"
target datalayout = "e-m:e-p270:32:32-p271:32:32-p272:64:64-i64:64-f80:128-n8:16:32:64-S128"
target triple = "x86_64-pc-linux-gnu"

@.str = private unnamed_addr constant [4 x i8] c"%d\0A\00", align 1
@.str.1 = private unnamed_addr constant [3 x i8] c"%s\00", align 1
@.str.2 = private unnamed_addr constant [2 x i8] c"\0A\00", align 1
@.str.3 = private unnamed_addr constant [4 x i8] c"%s\0A\00", align 1

; Function Attrs: noinline nounwind uwtable
define dso_local void @main() #0 {
  %1 = alloca i32, align 4
  %2 = alloca i32, align 4
  %3 = alloca i32, align 4
  %4 = alloca i8*, align 8
  %5 = alloca i8*, align 8
  %6 = alloca [20 x [100 x i8]], align 16
  %7 = alloca [20 x [100 x i8]], align 16
  %8 = alloca [20 x i32], align 16
  %9 = alloca [20 x i32], align 16
  %10 = call i32 (i8*, ...) @__isoc99_scanf(i8* getelementptr inbounds ([4 x i8], [4 x i8]* @.str, i64 0, i64 0), i32* %1)
  store i32 0, i32* %2, align 4
  br label %11

11:                                               ; preds = %46, %0
  %12 = load i32, i32* %2, align 4
  %13 = load i32, i32* %1, align 4
  %14 = sub nsw i32 %13, 1
  %15 = icmp slt i32 %12, %14
  br i1 %15, label %16, label %49

16:                                               ; preds = %11
  %17 = load i32, i32* %2, align 4
  %18 = sext i32 %17 to i64
  %19 = getelementptr inbounds [20 x [100 x i8]], [20 x [100 x i8]]* %6, i64 0, i64 %18
  %20 = getelementptr inbounds [100 x i8], [100 x i8]* %19, i64 0, i64 0
  %21 = call i32 (i8*, ...) @__isoc99_scanf(i8* getelementptr inbounds ([3 x i8], [3 x i8]* @.str.1, i64 0, i64 0), i8* %20)
  %22 = load i32, i32* %2, align 4
  %23 = sext i32 %22 to i64
  %24 = getelementptr inbounds [20 x [100 x i8]], [20 x [100 x i8]]* %7, i64 0, i64 %23
  %25 = getelementptr inbounds [100 x i8], [100 x i8]* %24, i64 0, i64 0
  %26 = call i32 (i8*, ...) @__isoc99_scanf(i8* getelementptr inbounds ([3 x i8], [3 x i8]* @.str.1, i64 0, i64 0), i8* %25)
  %27 = load i32, i32* %2, align 4
  %28 = sext i32 %27 to i64
  %29 = getelementptr inbounds [20 x [100 x i8]], [20 x [100 x i8]]* %6, i64 0, i64 %28
  %30 = getelementptr inbounds [100 x i8], [100 x i8]* %29, i64 0, i64 0
  %31 = call i64 @strlen(i8* %30) #3
  %32 = trunc i64 %31 to i32
  %33 = load i32, i32* %2, align 4
  %34 = sext i32 %33 to i64
  %35 = getelementptr inbounds [20 x i32], [20 x i32]* %8, i64 0, i64 %34
  store i32 %32, i32* %35, align 4
  %36 = load i32, i32* %2, align 4
  %37 = sext i32 %36 to i64
  %38 = getelementptr inbounds [20 x [100 x i8]], [20 x [100 x i8]]* %7, i64 0, i64 %37
  %39 = getelementptr inbounds [100 x i8], [100 x i8]* %38, i64 0, i64 0
  %40 = call i64 @strlen(i8* %39) #3
  %41 = trunc i64 %40 to i32
  %42 = load i32, i32* %2, align 4
  %43 = sext i32 %42 to i64
  %44 = getelementptr inbounds [20 x i32], [20 x i32]* %9, i64 0, i64 %43
  store i32 %41, i32* %44, align 4
  %45 = call i32 (i8*, ...) @__isoc99_scanf(i8* getelementptr inbounds ([2 x i8], [2 x i8]* @.str.2, i64 0, i64 0))
  br label %46

46:                                               ; preds = %16
  %47 = load i32, i32* %2, align 4
  %48 = add nsw i32 %47, 1
  store i32 %48, i32* %2, align 4
  br label %11

49:                                               ; preds = %11
  %50 = load i32, i32* %1, align 4
  %51 = sub nsw i32 %50, 1
  %52 = sext i32 %51 to i64
  %53 = getelementptr inbounds [20 x [100 x i8]], [20 x [100 x i8]]* %6, i64 0, i64 %52
  %54 = getelementptr inbounds [100 x i8], [100 x i8]* %53, i64 0, i64 0
  %55 = call i32 (i8*, ...) @__isoc99_scanf(i8* getelementptr inbounds ([3 x i8], [3 x i8]* @.str.1, i64 0, i64 0), i8* %54)
  %56 = load i32, i32* %1, align 4
  %57 = sub nsw i32 %56, 1
  %58 = sext i32 %57 to i64
  %59 = getelementptr inbounds [20 x [100 x i8]], [20 x [100 x i8]]* %7, i64 0, i64 %58
  %60 = getelementptr inbounds [100 x i8], [100 x i8]* %59, i64 0, i64 0
  %61 = call i32 (i8*, ...) @__isoc99_scanf(i8* getelementptr inbounds ([3 x i8], [3 x i8]* @.str.1, i64 0, i64 0), i8* %60)
  %62 = load i32, i32* %1, align 4
  %63 = sub nsw i32 %62, 1
  %64 = sext i32 %63 to i64
  %65 = getelementptr inbounds [20 x [100 x i8]], [20 x [100 x i8]]* %6, i64 0, i64 %64
  %66 = getelementptr inbounds [100 x i8], [100 x i8]* %65, i64 0, i64 0
  %67 = call i64 @strlen(i8* %66) #3
  %68 = trunc i64 %67 to i32
  %69 = load i32, i32* %1, align 4
  %70 = sub nsw i32 %69, 1
  %71 = sext i32 %70 to i64
  %72 = getelementptr inbounds [20 x i32], [20 x i32]* %8, i64 0, i64 %71
  store i32 %68, i32* %72, align 4
  %73 = load i32, i32* %1, align 4
  %74 = sub nsw i32 %73, 1
  %75 = sext i32 %74 to i64
  %76 = getelementptr inbounds [20 x [100 x i8]], [20 x [100 x i8]]* %7, i64 0, i64 %75
  %77 = getelementptr inbounds [100 x i8], [100 x i8]* %76, i64 0, i64 0
  %78 = call i64 @strlen(i8* %77) #3
  %79 = trunc i64 %78 to i32
  %80 = load i32, i32* %1, align 4
  %81 = sub nsw i32 %80, 1
  %82 = sext i32 %81 to i64
  %83 = getelementptr inbounds [20 x i32], [20 x i32]* %9, i64 0, i64 %82
  store i32 %79, i32* %83, align 4
  store i32 0, i32* %2, align 4
  br label %84

84:                                               ; preds = %194, %49
  %85 = load i32, i32* %2, align 4
  %86 = load i32, i32* %1, align 4
  %87 = icmp slt i32 %85, %86
  br i1 %87, label %88, label %197

88:                                               ; preds = %84
  %89 = load i32, i32* %2, align 4
  %90 = sext i32 %89 to i64
  %91 = getelementptr inbounds [20 x [100 x i8]], [20 x [100 x i8]]* %6, i64 0, i64 %90
  %92 = load i32, i32* %2, align 4
  %93 = sext i32 %92 to i64
  %94 = getelementptr inbounds [20 x i32], [20 x i32]* %8, i64 0, i64 %93
  %95 = load i32, i32* %94, align 4
  %96 = sub nsw i32 %95, 1
  %97 = sext i32 %96 to i64
  %98 = getelementptr inbounds [100 x i8], [100 x i8]* %91, i64 0, i64 %97
  store i8* %98, i8** %4, align 8
  %99 = load i32, i32* %2, align 4
  %100 = sext i32 %99 to i64
  %101 = getelementptr inbounds [20 x [100 x i8]], [20 x [100 x i8]]* %7, i64 0, i64 %100
  %102 = load i32, i32* %2, align 4
  %103 = sext i32 %102 to i64
  %104 = getelementptr inbounds [20 x i32], [20 x i32]* %9, i64 0, i64 %103
  %105 = load i32, i32* %104, align 4
  %106 = sub nsw i32 %105, 1
  %107 = sext i32 %106 to i64
  %108 = getelementptr inbounds [100 x i8], [100 x i8]* %101, i64 0, i64 %107
  store i8* %108, i8** %5, align 8
  store i32 0, i32* %3, align 4
  br label %109

109:                                              ; preds = %186, %88
  %110 = load i32, i32* %3, align 4
  %111 = load i32, i32* %2, align 4
  %112 = sext i32 %111 to i64
  %113 = getelementptr inbounds [20 x i32], [20 x i32]* %9, i64 0, i64 %112
  %114 = load i32, i32* %113, align 4
  %115 = icmp slt i32 %110, %114
  br i1 %115, label %116, label %193

116:                                              ; preds = %109
  %117 = load i8*, i8** %4, align 8
  %118 = load i8, i8* %117, align 1
  %119 = sext i8 %118 to i32
  %120 = load i8*, i8** %5, align 8
  %121 = load i8, i8* %120, align 1
  %122 = sext i8 %121 to i32
  %123 = icmp sge i32 %119, %122
  br i1 %123, label %124, label %146

124:                                              ; preds = %116
  %125 = load i8*, i8** %4, align 8
  %126 = load i8, i8* %125, align 1
  %127 = sext i8 %126 to i32
  %128 = load i8*, i8** %5, align 8
  %129 = load i8, i8* %128, align 1
  %130 = sext i8 %129 to i32
  %131 = sub nsw i32 %127, %130
  %132 = add nsw i32 %131, 48
  %133 = trunc i32 %132 to i8
  %134 = load i32, i32* %2, align 4
  %135 = sext i32 %134 to i64
  %136 = getelementptr inbounds [20 x [100 x i8]], [20 x [100 x i8]]* %6, i64 0, i64 %135
  %137 = load i32, i32* %2, align 4
  %138 = sext i32 %137 to i64
  %139 = getelementptr inbounds [20 x i32], [20 x i32]* %8, i64 0, i64 %138
  %140 = load i32, i32* %139, align 4
  %141 = sub nsw i32 %140, 1
  %142 = load i32, i32* %3, align 4
  %143 = sub nsw i32 %141, %142
  %144 = sext i32 %143 to i64
  %145 = getelementptr inbounds [100 x i8], [100 x i8]* %136, i64 0, i64 %144
  store i8 %133, i8* %145, align 1
  br label %185

146:                                              ; preds = %116
  %147 = load i8*, i8** %4, align 8
  %148 = load i8, i8* %147, align 1
  %149 = sext i8 %148 to i32
  %150 = load i8*, i8** %5, align 8
  %151 = load i8, i8* %150, align 1
  %152 = sext i8 %151 to i32
  %153 = icmp slt i32 %149, %152
  br i1 %153, label %154, label %184

154:                                              ; preds = %146
  %155 = load i8*, i8** %4, align 8
  %156 = load i8, i8* %155, align 1
  %157 = sext i8 %156 to i32
  %158 = load i8*, i8** %5, align 8
  %159 = load i8, i8* %158, align 1
  %160 = sext i8 %159 to i32
  %161 = sub nsw i32 %157, %160
  %162 = add nsw i32 %161, 58
  %163 = trunc i32 %162 to i8
  %164 = load i32, i32* %2, align 4
  %165 = sext i32 %164 to i64
  %166 = getelementptr inbounds [20 x [100 x i8]], [20 x [100 x i8]]* %6, i64 0, i64 %165
  %167 = load i32, i32* %2, align 4
  %168 = sext i32 %167 to i64
  %169 = getelementptr inbounds [20 x i32], [20 x i32]* %8, i64 0, i64 %168
  %170 = load i32, i32* %169, align 4
  %171 = sub nsw i32 %170, 1
  %172 = load i32, i32* %3, align 4
  %173 = sub nsw i32 %171, %172
  %174 = sext i32 %173 to i64
  %175 = getelementptr inbounds [100 x i8], [100 x i8]* %166, i64 0, i64 %174
  store i8 %163, i8* %175, align 1
  %176 = load i8*, i8** %4, align 8
  %177 = getelementptr inbounds i8, i8* %176, i64 -1
  %178 = load i8, i8* %177, align 1
  %179 = sext i8 %178 to i32
  %180 = sub nsw i32 %179, 1
  %181 = trunc i32 %180 to i8
  %182 = load i8*, i8** %4, align 8
  %183 = getelementptr inbounds i8, i8* %182, i64 -1
  store i8 %181, i8* %183, align 1
  br label %184

184:                                              ; preds = %154, %146
  br label %185

185:                                              ; preds = %184, %124
  br label %186

186:                                              ; preds = %185
  %187 = load i32, i32* %3, align 4
  %188 = add nsw i32 %187, 1
  store i32 %188, i32* %3, align 4
  %189 = load i8*, i8** %4, align 8
  %190 = getelementptr inbounds i8, i8* %189, i32 -1
  store i8* %190, i8** %4, align 8
  %191 = load i8*, i8** %5, align 8
  %192 = getelementptr inbounds i8, i8* %191, i32 -1
  store i8* %192, i8** %5, align 8
  br label %109

193:                                              ; preds = %109
  br label %194

194:                                              ; preds = %193
  %195 = load i32, i32* %2, align 4
  %196 = add nsw i32 %195, 1
  store i32 %196, i32* %2, align 4
  br label %84

197:                                              ; preds = %84
  store i32 0, i32* %2, align 4
  br label %198

198:                                              ; preds = %208, %197
  %199 = load i32, i32* %2, align 4
  %200 = load i32, i32* %1, align 4
  %201 = icmp slt i32 %199, %200
  br i1 %201, label %202, label %211

202:                                              ; preds = %198
  %203 = load i32, i32* %2, align 4
  %204 = sext i32 %203 to i64
  %205 = getelementptr inbounds [20 x [100 x i8]], [20 x [100 x i8]]* %6, i64 0, i64 %204
  %206 = getelementptr inbounds [100 x i8], [100 x i8]* %205, i64 0, i64 0
  %207 = call i32 (i8*, ...) @printf(i8* getelementptr inbounds ([4 x i8], [4 x i8]* @.str.3, i64 0, i64 0), i8* %206)
  br label %208

208:                                              ; preds = %202
  %209 = load i32, i32* %2, align 4
  %210 = add nsw i32 %209, 1
  store i32 %210, i32* %2, align 4
  br label %198

211:                                              ; preds = %198
  ret void
}

declare dso_local i32 @__isoc99_scanf(i8*, ...) #1

; Function Attrs: nounwind readonly
declare dso_local i64 @strlen(i8*) #2

declare dso_local i32 @printf(i8*, ...) #1


!llvm.module.flags = !{!0}
!llvm.ident = !{!1}

!0 = !{i32 1, !"wchar_size", i32 4}
!1 = !{!"clang version 10.0.0-4ubuntu1 "}
